target datalayout = "e-m:e-p270:32:32-p271:32:32-p272:64:64-i64:64-i128:128-f80:128-n8:16:32:64-S128"
target triple = "x86_64-pc-linux-gnu"

%struct._object = type { %union.anon, ptr }
%union.anon = type { i64 }
%struct.PyMethodDef = type { ptr, ptr, i32, ptr }
%struct.PyCFunctionObject = type { %struct._object, ptr, ptr, ptr, ptr, ptr }
%struct.PyDictObject = type { %struct._object, i64, i64, ptr, ptr }

@_Py_tss_tstate = external thread_local global ptr, align 8
@PyExc_TypeError = external global ptr, align 8
@.str.26 = private unnamed_addr constant [36 x i8] c"%.200s() takes no keyword arguments\00", align 1

; Function Attrs: inlinehint nounwind uwtable
define internal i64 @PyDict_GET_SIZE(ptr noundef %0) #3 {
  %2 = alloca ptr, align 8
  %3 = alloca ptr, align 8
  store ptr %0, ptr %2, align 8, !tbaa !9
  call void @llvm.lifetime.start.p0(i64 8, ptr %3) #6
  %4 = load ptr, ptr %2, align 8, !tbaa !9
  store ptr %4, ptr %3, align 8, !tbaa !17
  %5 = load ptr, ptr %3, align 8, !tbaa !17
  %6 = getelementptr inbounds nuw %struct.PyDictObject, ptr %5, i32 0, i32 1
  %7 = load i64, ptr %6, align 8, !tbaa !131
  call void @llvm.lifetime.end.p0(i64 8, ptr %3) #6
  ret i64 %7
}

; Function Attrs: inlinehint nounwind uwtable
define internal ptr @PyCFunction_GET_SELF(ptr noundef %0) #3 {
  %2 = alloca ptr, align 8
  %3 = alloca ptr, align 8
  %4 = alloca ptr, align 8
  %5 = alloca i32, align 4
  store ptr %0, ptr %3, align 8, !tbaa !9
  call void @llvm.lifetime.start.p0(i64 8, ptr %4) #6
  %6 = load ptr, ptr %3, align 8, !tbaa !9
  store ptr %6, ptr %4, align 8, !tbaa !17
  %7 = load ptr, ptr %4, align 8, !tbaa !17
  %8 = getelementptr inbounds nuw %struct.PyCFunctionObject, ptr %7, i32 0, i32 1
  %9 = load ptr, ptr %8, align 8, !tbaa !24
  %10 = getelementptr inbounds nuw %struct.PyMethodDef, ptr %9, i32 0, i32 2
  %11 = load i32, ptr %10, align 8, !tbaa !13
  %12 = and i32 %11, 32
  %13 = icmp ne i32 %12, 0
  br i1 %13, label %14, label %15

14:                                               ; preds = %1
  store ptr null, ptr %2, align 8
  store i32 1, ptr %5, align 4
  br label %19

15:                                               ; preds = %1
  %16 = load ptr, ptr %4, align 8, !tbaa !17
  %17 = getelementptr inbounds nuw %struct.PyCFunctionObject, ptr %16, i32 0, i32 2
  %18 = load ptr, ptr %17, align 8, !tbaa !25
  store ptr %18, ptr %2, align 8
  store i32 1, ptr %5, align 4
  br label %19

19:                                               ; preds = %15, %14
  call void @llvm.lifetime.end.p0(i64 8, ptr %4) #6
  %20 = load ptr, ptr %2, align 8
  ret ptr %20
}

; Function Attrs: inlinehint nounwind uwtable
define internal ptr @PyCFunction_GET_FUNCTION(ptr noundef %0) #3 {
  %2 = alloca ptr, align 8
  store ptr %0, ptr %2, align 8, !tbaa !9
  %3 = load ptr, ptr %2, align 8, !tbaa !9
  %4 = getelementptr inbounds nuw %struct.PyCFunctionObject, ptr %3, i32 0, i32 1
  %5 = load ptr, ptr %4, align 8, !tbaa !24
  %6 = getelementptr inbounds nuw %struct.PyMethodDef, ptr %5, i32 0, i32 1
  %7 = load ptr, ptr %6, align 8, !tbaa !113
  ret ptr %7
}

; Function Attrs: inlinehint nounwind uwtable
define internal i32 @PyCFunction_GET_FLAGS(ptr noundef %0) #3 {
  %2 = alloca ptr, align 8
  store ptr %0, ptr %2, align 8, !tbaa !9
  %3 = load ptr, ptr %2, align 8, !tbaa !9
  %4 = getelementptr inbounds nuw %struct.PyCFunctionObject, ptr %3, i32 0, i32 1
  %5 = load ptr, ptr %4, align 8, !tbaa !24
  %6 = getelementptr inbounds nuw %struct.PyMethodDef, ptr %5, i32 0, i32 2
  %7 = load i32, ptr %6, align 8, !tbaa !13
  ret i32 %7
}

; Function Attrs: inlinehint nounwind uwtable
define internal ptr @_PyThreadState_GET() #3 {
  %1 = call align 8 ptr @llvm.threadlocal.address.p0(ptr align 8 @_Py_tss_tstate)
  %2 = load ptr, ptr %1, align 8, !tbaa !32
  ret ptr %2
}

; Function Attrs: nounwind uwtable
define internal ptr @cfunction_call(ptr noundef %0, ptr noundef %1, ptr noundef %2) #0 {
  %4 = alloca ptr, align 8
  %5 = alloca ptr, align 8
  %6 = alloca ptr, align 8
  %7 = alloca ptr, align 8
  %8 = alloca ptr, align 8
  %9 = alloca i32, align 4
  %10 = alloca i32, align 4
  %11 = alloca ptr, align 8
  %12 = alloca ptr, align 8
  %13 = alloca ptr, align 8
  store ptr %0, ptr %5, align 8, !tbaa !9
  store ptr %1, ptr %6, align 8, !tbaa !9
  store ptr %2, ptr %7, align 8, !tbaa !9
  call void @llvm.lifetime.start.p0(i64 8, ptr %8) #6
  %14 = call ptr @_PyThreadState_GET()
  store ptr %14, ptr %8, align 8, !tbaa !32
  call void @llvm.lifetime.start.p0(i64 4, ptr %9) #6
  %15 = load ptr, ptr %5, align 8, !tbaa !9
  %16 = call i32 @PyCFunction_GET_FLAGS(ptr noundef %15)
  store i32 %16, ptr %9, align 4, !tbaa !123
  %17 = load i32, ptr %9, align 4, !tbaa !123
  %18 = and i32 %17, 1
  %19 = icmp ne i32 %18, 0
  br i1 %19, label %25, label %20

20:                                               ; preds = %3
  %21 = load ptr, ptr %5, align 8, !tbaa !9
  %22 = load ptr, ptr %6, align 8, !tbaa !9
  %23 = load ptr, ptr %7, align 8, !tbaa !9
  %24 = call ptr @PyVectorcall_Call(ptr noundef %21, ptr noundef %22, ptr noundef %23)
  store ptr %24, ptr %4, align 8
  store i32 1, ptr %10, align 4
  br label %66

25:                                               ; preds = %3
  call void @llvm.lifetime.start.p0(i64 8, ptr %11) #6
  %26 = load ptr, ptr %5, align 8, !tbaa !9
  %27 = call ptr @PyCFunction_GET_FUNCTION(ptr noundef %26)
  store ptr %27, ptr %11, align 8, !tbaa !17
  call void @llvm.lifetime.start.p0(i64 8, ptr %12) #6
  %28 = load ptr, ptr %5, align 8, !tbaa !9
  %29 = call ptr @PyCFunction_GET_SELF(ptr noundef %28)
  store ptr %29, ptr %12, align 8, !tbaa !9
  call void @llvm.lifetime.start.p0(i64 8, ptr %13) #6
  %30 = load i32, ptr %9, align 4, !tbaa !123
  %31 = and i32 %30, 2
  %32 = icmp ne i32 %31, 0
  br i1 %32, label %33, label %39

33:                                               ; preds = %25
  %34 = load ptr, ptr %11, align 8, !tbaa !17
  %35 = load ptr, ptr %12, align 8, !tbaa !9
  %36 = load ptr, ptr %6, align 8, !tbaa !9
  %37 = load ptr, ptr %7, align 8, !tbaa !9
  %38 = call ptr %34(ptr noundef %35, ptr noundef %36, ptr noundef %37)
  store ptr %38, ptr %13, align 8, !tbaa !9
  br label %60

39:                                               ; preds = %25
  %40 = load ptr, ptr %7, align 8, !tbaa !9
  %41 = icmp ne ptr %40, null
  br i1 %41, label %42, label %55

42:                                               ; preds = %39
  %43 = load ptr, ptr %7, align 8, !tbaa !9
  %44 = call i64 @PyDict_GET_SIZE(ptr noundef %43)
  %45 = icmp ne i64 %44, 0
  br i1 %45, label %46, label %55

46:                                               ; preds = %42
  %47 = load ptr, ptr %8, align 8, !tbaa !32
  %48 = load ptr, ptr @PyExc_TypeError, align 8, !tbaa !9
  %49 = load ptr, ptr %5, align 8, !tbaa !9
  %50 = getelementptr inbounds nuw %struct.PyCFunctionObject, ptr %49, i32 0, i32 1
  %51 = load ptr, ptr %50, align 8, !tbaa !24
  %52 = getelementptr inbounds nuw %struct.PyMethodDef, ptr %51, i32 0, i32 0
  %53 = load ptr, ptr %52, align 8, !tbaa !18
  %54 = call ptr (ptr, ptr, ptr, ...) @_PyErr_Format(ptr noundef %47, ptr noundef %48, ptr noundef @.str.26, ptr noundef %53)
  store ptr null, ptr %4, align 8
  store i32 1, ptr %10, align 4
  br label %65

55:                                               ; preds = %42, %39
  %56 = load ptr, ptr %11, align 8, !tbaa !17
  %57 = load ptr, ptr %12, align 8, !tbaa !9
  %58 = load ptr, ptr %6, align 8, !tbaa !9
  %59 = call ptr %56(ptr noundef %57, ptr noundef %58)
  store ptr %59, ptr %13, align 8, !tbaa !9
  br label %60

60:                                               ; preds = %55, %33
  %61 = load ptr, ptr %8, align 8, !tbaa !32
  %62 = load ptr, ptr %5, align 8, !tbaa !9
  %63 = load ptr, ptr %13, align 8, !tbaa !9
  %64 = call ptr @_Py_CheckFunctionResult(ptr noundef %61, ptr noundef %62, ptr noundef %63, ptr noundef null)
  store ptr %64, ptr %4, align 8
  store i32 1, ptr %10, align 4
  br label %65

65:                                               ; preds = %60, %46
  call void @llvm.lifetime.end.p0(i64 8, ptr %13) #6
  call void @llvm.lifetime.end.p0(i64 8, ptr %12) #6
  call void @llvm.lifetime.end.p0(i64 8, ptr %11) #6
  br label %66

66:                                               ; preds = %65, %20
  call void @llvm.lifetime.end.p0(i64 4, ptr %9) #6
  call void @llvm.lifetime.end.p0(i64 8, ptr %8) #6
  %67 = load ptr, ptr %4, align 8
  ret ptr %67
}