; Function Attrs: nounwind uwtable
define internal ptr @cfunction_call(ptr noundef %0, ptr noundef %1, ptr noundef %2) #0 {
  %4 = tail call align 8 ptr @llvm.threadlocal.address.p0(ptr align 8 @_Py_tss_tstate)
  %5 = load ptr, ptr %4, align 8, !tbaa !26
  %6 = getelementptr i8, ptr %0, i64 16
  %.val = load ptr, ptr %6, align 8, !tbaa !22
  %7 = getelementptr i8, ptr %.val, i64 16
  %.val.val = load i32, ptr %7, align 8, !tbaa !4
  %8 = and i32 %.val.val, 1
  %.not = icmp eq i32 %8, 0
  br i1 %.not, label %9, label %11

9:                                                ; preds = %3
  %10 = tail call ptr @PyVectorcall_Call(ptr noundef nonnull %0, ptr noundef %1, ptr noundef %2) #5
  br label %31

11:                                               ; preds = %3
  %12 = getelementptr i8, ptr %.val, i64 8
  %.val27.val = load ptr, ptr %12, align 8, !tbaa !112
  %13 = and i32 %.val.val, 32
  %.not.i = icmp eq i32 %13, 0
  br i1 %.not.i, label %14, label %PyCFunction_GET_SELF.exit

14:                                               ; preds = %11
  %15 = getelementptr inbounds nuw i8, ptr %0, i64 24
  %16 = load ptr, ptr %15, align 8, !tbaa !23
  br label %PyCFunction_GET_SELF.exit

PyCFunction_GET_SELF.exit:                        ; preds = %11, %14
  %.0.i = phi ptr [ %16, %14 ], [ null, %11 ]
  %17 = and i32 %.val.val, 2
  %.not24 = icmp eq i32 %17, 0
  br i1 %.not24, label %20, label %18

18:                                               ; preds = %PyCFunction_GET_SELF.exit
  %19 = tail call ptr %.val27.val(ptr noundef %.0.i, ptr noundef %1, ptr noundef %2) #5
  br label %29

20:                                               ; preds = %PyCFunction_GET_SELF.exit
  %.not25 = icmp eq ptr %2, null
  br i1 %.not25, label %27, label %21

21:                                               ; preds = %20
  %22 = getelementptr i8, ptr %2, i64 16
  %.val28 = load i64, ptr %22, align 8, !tbaa !121
  %.not26 = icmp eq i64 %.val28, 0
  br i1 %.not26, label %27, label %23

23:                                               ; preds = %21
  %24 = load ptr, ptr @PyExc_TypeError, align 8, !tbaa !11
  %25 = load ptr, ptr %.val, align 8, !tbaa !13
  %26 = tail call ptr (ptr, ptr, ptr, ...) @_PyErr_Format(ptr noundef %5, ptr noundef %24, ptr noundef nonnull @.str.26, ptr noundef %25) #5
  br label %31

27:                                               ; preds = %21, %20
  %28 = tail call ptr %.val27.val(ptr noundef %.0.i, ptr noundef %1) #5
  br label %29

29:                                               ; preds = %27, %18
  %.0 = phi ptr [ %19, %18 ], [ %28, %27 ]
  %30 = tail call ptr @_Py_CheckFunctionResult(ptr noundef %5, ptr noundef nonnull %0, ptr noundef %.0, ptr noundef null) #5
  br label %31

31:                                               ; preds = %23, %29, %9
  %.022 = phi ptr [ %10, %9 ], [ %30, %29 ], [ null, %23 ]
  ret ptr %.022
}